target datalayout = "e-m:e-p270:32:32-p271:32:32-p272:64:64-i64:64-i128:128-f80:128-n8:16:32:64-S128"
target triple = "x86_64-pc-linux-gnu"

%struct.opcode_metadata = type { i8, i8, i16 }
%struct._Py_SourceLocation = type { i32, i32, i32, i32 }
%struct._PyJumpTargetLabel = type { i32 }
%struct._PyCfgBasicblock = type { ptr, %struct._PyJumpTargetLabel, ptr, ptr, ptr, i32, i32, i64, i32, i32, i8 }
%struct._PyCfgInstruction = type { i32, i32, %struct._Py_SourceLocation, ptr, ptr }

@_PyOpcode_opcode_metadata = external constant [266 x %struct.opcode_metadata], align 16

; Function Attrs: inlinehint nounwind uwtable
define internal i32 @is_jump(ptr noundef %0) #5 {
  %2 = alloca ptr, align 8
  store ptr %0, ptr %2, align 8, !tbaa !29
  %3 = load ptr, ptr %2, align 8, !tbaa !29
  %4 = getelementptr inbounds nuw %struct._PyCfgInstruction, ptr %3, i32 0, i32 0
  %5 = load i32, ptr %4, align 8, !tbaa !30
  %6 = sext i32 %5 to i64
  %7 = getelementptr [266 x %struct.opcode_metadata], ptr @_PyOpcode_opcode_metadata, i64 0, i64 %6
  %8 = getelementptr inbounds nuw %struct.opcode_metadata, ptr %7, i32 0, i32 2
  %9 = load i16, ptr %8, align 2, !tbaa !45
  %10 = zext i16 %9 to i32
  %11 = and i32 %10, 8
  ret i32 %11
}

; Function Attrs: nounwind uwtable
define internal ptr @basicblock_last_instr(ptr noundef %0) #0 {
  %2 = alloca ptr, align 8
  %3 = alloca ptr, align 8
  store ptr %0, ptr %3, align 8, !tbaa !14
  %4 = load ptr, ptr %3, align 8, !tbaa !14
  %5 = getelementptr inbounds nuw %struct._PyCfgBasicblock, ptr %4, i32 0, i32 5
  %6 = load i32, ptr %5, align 8, !tbaa !44
  %7 = icmp sgt i32 %6, 0
  br i1 %7, label %8, label %18

8:                                                ; preds = %1
  %9 = load ptr, ptr %3, align 8, !tbaa !14
  %10 = getelementptr inbounds nuw %struct._PyCfgBasicblock, ptr %9, i32 0, i32 3
  %11 = load ptr, ptr %10, align 8, !tbaa !20
  %12 = load ptr, ptr %3, align 8, !tbaa !14
  %13 = getelementptr inbounds nuw %struct._PyCfgBasicblock, ptr %12, i32 0, i32 5
  %14 = load i32, ptr %13, align 8, !tbaa !44
  %15 = sub i32 %14, 1
  %16 = sext i32 %15 to i64
  %17 = getelementptr %struct._PyCfgInstruction, ptr %11, i64 %16
  store ptr %17, ptr %2, align 8
  br label %19

18:                                               ; preds = %1
  store ptr null, ptr %2, align 8
  br label %19

19:                                               ; preds = %18, %8
  %20 = load ptr, ptr %2, align 8
  ret ptr %20
}

; Function Attrs: inlinehint nounwind uwtable
define internal i32 @basicblock_nofallthrough(ptr noundef %0) #5 {
  %2 = alloca ptr, align 8
  %3 = alloca ptr, align 8
  store ptr %0, ptr %2, align 8, !tbaa !14
  call void @llvm.lifetime.start.p0(i64 8, ptr %3) #7
  %4 = load ptr, ptr %2, align 8, !tbaa !14
  %5 = call ptr @basicblock_last_instr(ptr noundef %4)
  store ptr %5, ptr %3, align 8, !tbaa !29
  %6 = load ptr, ptr %3, align 8, !tbaa !29
  %7 = icmp ne ptr %6, null
  br i1 %7, label %8, label %52

8:                                                ; preds = %1
  %9 = load ptr, ptr %3, align 8, !tbaa !29
  %10 = getelementptr inbounds nuw %struct._PyCfgInstruction, ptr %9, i32 0, i32 0
  %11 = load i32, ptr %10, align 8, !tbaa !30
  %12 = icmp eq i32 %11, 36
  br i1 %12, label %50, label %13

13:                                               ; preds = %8
  %14 = load ptr, ptr %3, align 8, !tbaa !29
  %15 = getelementptr inbounds nuw %struct._PyCfgInstruction, ptr %14, i32 0, i32 0
  %16 = load i32, ptr %15, align 8, !tbaa !30
  %17 = icmp eq i32 %16, 101
  br i1 %17, label %50, label %18

18:                                               ; preds = %13
  %19 = load ptr, ptr %3, align 8, !tbaa !29
  %20 = getelementptr inbounds nuw %struct._PyCfgInstruction, ptr %19, i32 0, i32 0
  %21 = load i32, ptr %20, align 8, !tbaa !30
  %22 = icmp eq i32 %21, 102
  br i1 %22, label %50, label %23

23:                                               ; preds = %18
  %24 = load ptr, ptr %3, align 8, !tbaa !29
  %25 = getelementptr inbounds nuw %struct._PyCfgInstruction, ptr %24, i32 0, i32 0
  %26 = load i32, ptr %25, align 8, !tbaa !30
  %27 = icmp eq i32 %26, 256
  br i1 %27, label %48, label %28

28:                                               ; preds = %23
  %29 = load ptr, ptr %3, align 8, !tbaa !29
  %30 = getelementptr inbounds nuw %struct._PyCfgInstruction, ptr %29, i32 0, i32 0
  %31 = load i32, ptr %30, align 8, !tbaa !30
  %32 = icmp eq i32 %31, 259
  br i1 %32, label %48, label %33

33:                                               ; preds = %28
  %34 = load ptr, ptr %3, align 8, !tbaa !29
  %35 = getelementptr inbounds nuw %struct._PyCfgInstruction, ptr %34, i32 0, i32 0
  %36 = load i32, ptr %35, align 8, !tbaa !30
  %37 = icmp eq i32 %36, 76
  br i1 %37, label %48, label %38

38:                                               ; preds = %33
  %39 = load ptr, ptr %3, align 8, !tbaa !29
  %40 = getelementptr inbounds nuw %struct._PyCfgInstruction, ptr %39, i32 0, i32 0
  %41 = load i32, ptr %40, align 8, !tbaa !30
  %42 = icmp eq i32 %41, 74
  br i1 %42, label %48, label %43

43:                                               ; preds = %38
  %44 = load ptr, ptr %3, align 8, !tbaa !29
  %45 = getelementptr inbounds nuw %struct._PyCfgInstruction, ptr %44, i32 0, i32 0
  %46 = load i32, ptr %45, align 8, !tbaa !30
  %47 = icmp eq i32 %46, 75
  br label %48

48:                                               ; preds = %43, %38, %33, %28, %23
  %49 = phi i1 [ true, %38 ], [ true, %33 ], [ true, %28 ], [ true, %23 ], [ %47, %43 ]
  br label %50

50:                                               ; preds = %48, %18, %13, %8
  %51 = phi i1 [ true, %18 ], [ true, %13 ], [ true, %8 ], [ %49, %48 ]
  br label %52

52:                                               ; preds = %50, %1
  %53 = phi i1 [ false, %1 ], [ %51, %50 ]
  %54 = zext i1 %53 to i32
  call void @llvm.lifetime.end.p0(i64 8, ptr %3) #7
  ret i32 %54
}

; Function Attrs: inlinehint nounwind uwtable
define internal void @maybe_push(ptr noundef %0, i64 noundef %1, ptr noundef %2) #5 {
  %4 = alloca ptr, align 8
  %5 = alloca i64, align 8
  %6 = alloca ptr, align 8
  %7 = alloca i64, align 8
  store ptr %0, ptr %4, align 8, !tbaa !14
  store i64 %1, ptr %5, align 8, !tbaa !38
  store ptr %2, ptr %6, align 8, !tbaa !180
  call void @llvm.lifetime.start.p0(i64 8, ptr %7) #7
  %8 = load ptr, ptr %4, align 8, !tbaa !14
  %9 = getelementptr inbounds nuw %struct._PyCfgBasicblock, ptr %8, i32 0, i32 7
  %10 = load i64, ptr %9, align 8, !tbaa !182
  %11 = load i64, ptr %5, align 8, !tbaa !38
  %12 = or i64 %10, %11
  store i64 %12, ptr %7, align 8, !tbaa !38
  %13 = load ptr, ptr %4, align 8, !tbaa !14
  %14 = getelementptr inbounds nuw %struct._PyCfgBasicblock, ptr %13, i32 0, i32 7
  %15 = load i64, ptr %14, align 8, !tbaa !182
  %16 = load i64, ptr %7, align 8, !tbaa !38
  %17 = icmp ne i64 %15, %16
  br i1 %17, label %18, label %40

18:                                               ; preds = %3
  %19 = load i64, ptr %7, align 8, !tbaa !38
  %20 = load ptr, ptr %4, align 8, !tbaa !14
  %21 = getelementptr inbounds nuw %struct._PyCfgBasicblock, ptr %20, i32 0, i32 7
  store i64 %19, ptr %21, align 8, !tbaa !182
  %22 = load ptr, ptr %4, align 8, !tbaa !14
  %23 = getelementptr inbounds nuw %struct._PyCfgBasicblock, ptr %22, i32 0, i32 10
  %24 = load i8, ptr %23, align 8
  %25 = lshr i8 %24, 1
  %26 = and i8 %25, 1
  %27 = zext i8 %26 to i32
  %28 = icmp ne i32 %27, 0
  br i1 %28, label %39, label %29

29:                                               ; preds = %18
  %30 = load ptr, ptr %4, align 8, !tbaa !14
  %31 = load ptr, ptr %6, align 8, !tbaa !180
  %32 = load ptr, ptr %31, align 8, !tbaa !39
  %33 = getelementptr ptr, ptr %32, i32 1
  store ptr %33, ptr %31, align 8, !tbaa !39
  store ptr %30, ptr %32, align 8, !tbaa !14
  %34 = load ptr, ptr %4, align 8, !tbaa !14
  %35 = getelementptr inbounds nuw %struct._PyCfgBasicblock, ptr %34, i32 0, i32 10
  %36 = load i8, ptr %35, align 8
  %37 = and i8 %36, -3
  %38 = or i8 %37, 2
  store i8 %38, ptr %35, align 8
  br label %39

39:                                               ; preds = %29, %18
  br label %40

40:                                               ; preds = %39, %3
  call void @llvm.lifetime.end.p0(i64 8, ptr %7) #7
  ret void
}

; Function Attrs: nounwind uwtable
define internal void @scan_block_for_locals(ptr noundef %0, ptr noundef %1) #0 {
  %3 = alloca ptr, align 8
  %4 = alloca ptr, align 8
  %5 = alloca i64, align 8
  %6 = alloca i32, align 4
  %7 = alloca i32, align 4
  %8 = alloca ptr, align 8
  %9 = alloca i64, align 8
  %10 = alloca ptr, align 8
  store ptr %0, ptr %3, align 8, !tbaa !14
  store ptr %1, ptr %4, align 8, !tbaa !180
  call void @llvm.lifetime.start.p0(i64 8, ptr %5) #7
  %11 = load ptr, ptr %3, align 8, !tbaa !14
  %12 = getelementptr inbounds nuw %struct._PyCfgBasicblock, ptr %11, i32 0, i32 7
  %13 = load i64, ptr %12, align 8, !tbaa !182
  store i64 %13, ptr %5, align 8, !tbaa !38
  call void @llvm.lifetime.start.p0(i64 4, ptr %6) #7
  store i32 0, ptr %6, align 4, !tbaa !19
  br label %14

14:                                               ; preds = %84, %2
  %15 = load i32, ptr %6, align 4, !tbaa !19
  %16 = load ptr, ptr %3, align 8, !tbaa !14
  %17 = getelementptr inbounds nuw %struct._PyCfgBasicblock, ptr %16, i32 0, i32 5
  %18 = load i32, ptr %17, align 8, !tbaa !44
  %19 = icmp slt i32 %15, %18
  br i1 %19, label %21, label %20

20:                                               ; preds = %14
  store i32 2, ptr %7, align 4
  call void @llvm.lifetime.end.p0(i64 4, ptr %6) #7
  br label %87

21:                                               ; preds = %14
  call void @llvm.lifetime.start.p0(i64 8, ptr %8) #7
  %22 = load ptr, ptr %3, align 8, !tbaa !14
  %23 = getelementptr inbounds nuw %struct._PyCfgBasicblock, ptr %22, i32 0, i32 3
  %24 = load ptr, ptr %23, align 8, !tbaa !20
  %25 = load i32, ptr %6, align 4, !tbaa !19
  %26 = sext i32 %25 to i64
  %27 = getelementptr %struct._PyCfgInstruction, ptr %24, i64 %26
  store ptr %27, ptr %8, align 8, !tbaa !29
  %28 = load ptr, ptr %8, align 8, !tbaa !29
  %29 = getelementptr inbounds nuw %struct._PyCfgInstruction, ptr %28, i32 0, i32 4
  %30 = load ptr, ptr %29, align 8, !tbaa !56
  %31 = icmp ne ptr %30, null
  br i1 %31, label %32, label %38

32:                                               ; preds = %21
  %33 = load ptr, ptr %8, align 8, !tbaa !29
  %34 = getelementptr inbounds nuw %struct._PyCfgInstruction, ptr %33, i32 0, i32 4
  %35 = load ptr, ptr %34, align 8, !tbaa !56
  %36 = load i64, ptr %5, align 8, !tbaa !38
  %37 = load ptr, ptr %4, align 8, !tbaa !180
  call void @maybe_push(ptr noundef %35, i64 noundef %36, ptr noundef %37)
  br label %38

38:                                               ; preds = %32, %21
  %39 = load ptr, ptr %8, align 8, !tbaa !29
  %40 = getelementptr inbounds nuw %struct._PyCfgInstruction, ptr %39, i32 0, i32 1
  %41 = load i32, ptr %40, align 4, !tbaa !33
  %42 = icmp sge i32 %41, 64
  br i1 %42, label %43, label %44

43:                                               ; preds = %38
  store i32 4, ptr %7, align 4
  br label %81

44:                                               ; preds = %38
  call void @llvm.lifetime.start.p0(i64 8, ptr %9) #7
  %45 = load ptr, ptr %8, align 8, !tbaa !29
  %46 = getelementptr inbounds nuw %struct._PyCfgInstruction, ptr %45, i32 0, i32 1
  %47 = load i32, ptr %46, align 4, !tbaa !33
  %48 = zext i32 %47 to i64
  %49 = shl i64 1, %48
  store i64 %49, ptr %9, align 8, !tbaa !38
  %50 = load ptr, ptr %8, align 8, !tbaa !29
  %51 = getelementptr inbounds nuw %struct._PyCfgInstruction, ptr %50, i32 0, i32 0
  %52 = load i32, ptr %51, align 8, !tbaa !30
  switch i32 %52, label %80 [
    i32 63, label %53
    i32 84, label %53
    i32 265, label %53
    i32 109, label %57
    i32 85, label %62
    i32 83, label %67
  ]

53:                                               ; preds = %44, %44, %44
  %54 = load i64, ptr %9, align 8, !tbaa !38
  %55 = load i64, ptr %5, align 8, !tbaa !38
  %56 = or i64 %55, %54
  store i64 %56, ptr %5, align 8, !tbaa !38
  br label %80

57:                                               ; preds = %44
  %58 = load i64, ptr %9, align 8, !tbaa !38
  %59 = xor i64 %58, -1
  %60 = load i64, ptr %5, align 8, !tbaa !38
  %61 = and i64 %60, %59
  store i64 %61, ptr %5, align 8, !tbaa !38
  br label %80

62:                                               ; preds = %44
  %63 = load i64, ptr %9, align 8, !tbaa !38
  %64 = xor i64 %63, -1
  %65 = load i64, ptr %5, align 8, !tbaa !38
  %66 = and i64 %65, %64
  store i64 %66, ptr %5, align 8, !tbaa !38
  br label %80

67:                                               ; preds = %44
  %68 = load i64, ptr %5, align 8, !tbaa !38
  %69 = load i64, ptr %9, align 8, !tbaa !38
  %70 = and i64 %68, %69
  %71 = icmp ne i64 %70, 0
  br i1 %71, label %72, label %75

72:                                               ; preds = %67
  %73 = load ptr, ptr %8, align 8, !tbaa !29
  %74 = getelementptr inbounds nuw %struct._PyCfgInstruction, ptr %73, i32 0, i32 0
  store i32 85, ptr %74, align 8, !tbaa !30
  br label %75

75:                                               ; preds = %72, %67
  %76 = load i64, ptr %9, align 8, !tbaa !38
  %77 = xor i64 %76, -1
  %78 = load i64, ptr %5, align 8, !tbaa !38
  %79 = and i64 %78, %77
  store i64 %79, ptr %5, align 8, !tbaa !38
  br label %80

80:                                               ; preds = %44, %75, %62, %57, %53
  call void @llvm.lifetime.end.p0(i64 8, ptr %9) #7
  store i32 0, ptr %7, align 4
  br label %81

81:                                               ; preds = %80, %43
  call void @llvm.lifetime.end.p0(i64 8, ptr %8) #7
  %82 = load i32, ptr %7, align 4
  switch i32 %82, label %118 [
    i32 0, label %83
    i32 4, label %84
  ]

83:                                               ; preds = %81
  br label %84

84:                                               ; preds = %83, %81
  %85 = load i32, ptr %6, align 4, !tbaa !19
  %86 = add i32 %85, 1
  store i32 %86, ptr %6, align 4, !tbaa !19
  br label %14, !llvm.loop !183

87:                                               ; preds = %20
  %88 = load ptr, ptr %3, align 8, !tbaa !14
  %89 = getelementptr inbounds nuw %struct._PyCfgBasicblock, ptr %88, i32 0, i32 4
  %90 = load ptr, ptr %89, align 8, !tbaa !42
  %91 = icmp ne ptr %90, null
  br i1 %91, label %92, label %102

92:                                               ; preds = %87
  %93 = load ptr, ptr %3, align 8, !tbaa !14
  %94 = call i32 @basicblock_nofallthrough(ptr noundef %93)
  %95 = icmp ne i32 %94, 0
  br i1 %95, label %102, label %96

96:                                               ; preds = %92
  %97 = load ptr, ptr %3, align 8, !tbaa !14
  %98 = getelementptr inbounds nuw %struct._PyCfgBasicblock, ptr %97, i32 0, i32 4
  %99 = load ptr, ptr %98, align 8, !tbaa !42
  %100 = load i64, ptr %5, align 8, !tbaa !38
  %101 = load ptr, ptr %4, align 8, !tbaa !180
  call void @maybe_push(ptr noundef %99, i64 noundef %100, ptr noundef %101)
  br label %102

102:                                              ; preds = %96, %92, %87
  call void @llvm.lifetime.start.p0(i64 8, ptr %10) #7
  %103 = load ptr, ptr %3, align 8, !tbaa !14
  %104 = call ptr @basicblock_last_instr(ptr noundef %103)
  store ptr %104, ptr %10, align 8, !tbaa !29
  %105 = load ptr, ptr %10, align 8, !tbaa !29
  %106 = icmp ne ptr %105, null
  br i1 %106, label %107, label %117

107:                                              ; preds = %102
  %108 = load ptr, ptr %10, align 8, !tbaa !29
  %109 = call i32 @is_jump(ptr noundef %108)
  %110 = icmp ne i32 %109, 0
  br i1 %110, label %111, label %117

111:                                              ; preds = %107
  %112 = load ptr, ptr %10, align 8, !tbaa !29
  %113 = getelementptr inbounds nuw %struct._PyCfgInstruction, ptr %112, i32 0, i32 3
  %114 = load ptr, ptr %113, align 8, !tbaa !34
  %115 = load i64, ptr %5, align 8, !tbaa !38
  %116 = load ptr, ptr %4, align 8, !tbaa !180
  call void @maybe_push(ptr noundef %114, i64 noundef %115, ptr noundef %116)
  br label %117

117:                                              ; preds = %111, %107, %102
  call void @llvm.lifetime.end.p0(i64 8, ptr %10) #7
  call void @llvm.lifetime.end.p0(i64 8, ptr %5) #7
  ret void

118:                                              ; preds = %81
  unreachable
}