; Function Attrs: nofree norecurse nosync nounwind memory(readwrite, inaccessiblemem: none) uwtable
define internal fastcc void @scan_block_for_locals(ptr noundef readonly captures(none) %0, ptr noundef nonnull captures(none) %1) unnamed_addr #5 {
  %3 = getelementptr inbounds nuw i8, ptr %0, i64 48
  %4 = load i64, ptr %3, align 8, !tbaa !94
  %5 = getelementptr inbounds nuw i8, ptr %0, i64 40
  %6 = load i32, ptr %5, align 8, !tbaa !25
  %7 = icmp sgt i32 %6, 0
  br i1 %7, label %.lr.ph, label %._crit_edge

.lr.ph:                                           ; preds = %2
  %8 = getelementptr inbounds nuw i8, ptr %0, i64 24
  br label %11

._crit_edge:                                      ; preds = %50, %2
  %.0.lcssa = phi i64 [ %4, %2 ], [ %.1, %50 ]
  %.lcssa = phi i32 [ %6, %2 ], [ %51, %50 ]
  %9 = getelementptr inbounds nuw i8, ptr %0, i64 32
  %10 = load ptr, ptr %9, align 8, !tbaa !34
  %.not = icmp eq ptr %10, null
  br i1 %.not, label %maybe_push.exit46, label %54

11:                                               ; preds = %.lr.ph, %50
  %indvars.iv = phi i64 [ 0, %.lr.ph ], [ %indvars.iv.next, %50 ]
  %.059 = phi i64 [ %4, %.lr.ph ], [ %.1, %50 ]
  %12 = load ptr, ptr %8, align 8, !tbaa !20
  %13 = getelementptr %struct._PyCfgInstruction, ptr %12, i64 %indvars.iv
  %14 = getelementptr inbounds nuw i8, ptr %13, i64 32
  %15 = load ptr, ptr %14, align 8, !tbaa !116
  %.not41 = icmp eq ptr %15, null
  br i1 %.not41, label %maybe_push.exit, label %16

16:                                               ; preds = %11
  %17 = getelementptr inbounds nuw i8, ptr %15, i64 48
  %18 = load i64, ptr %17, align 8, !tbaa !94
  %19 = or i64 %18, %.059
  %.not.i = icmp eq i64 %18, %19
  br i1 %.not.i, label %maybe_push.exit, label %20

20:                                               ; preds = %16
  store i64 %19, ptr %17, align 8, !tbaa !94
  %21 = getelementptr inbounds nuw i8, ptr %15, i64 64
  %22 = load i8, ptr %21, align 8
  %23 = and i8 %22, 2
  %.not9.i = icmp eq i8 %23, 0
  br i1 %.not9.i, label %24, label %maybe_push.exit

24:                                               ; preds = %20
  %25 = load ptr, ptr %1, align 8, !tbaa !92
  %26 = getelementptr i8, ptr %25, i64 8
  store ptr %26, ptr %1, align 8, !tbaa !92
  store ptr %15, ptr %25, align 8, !tbaa !23
  %27 = load i8, ptr %21, align 8
  %28 = or i8 %27, 2
  store i8 %28, ptr %21, align 8
  br label %maybe_push.exit

maybe_push.exit:                                  ; preds = %24, %20, %16, %11
  %29 = getelementptr inbounds nuw i8, ptr %13, i64 4
  %30 = load i32, ptr %29, align 4, !tbaa !35
  %31 = icmp sgt i32 %30, 63
  br i1 %31, label %50, label %32

32:                                               ; preds = %maybe_push.exit
  %33 = zext nneg i32 %30 to i64
  %34 = shl nuw i64 1, %33
  %35 = load i32, ptr %13, align 8, !tbaa !26
  switch i32 %35, label %50 [
    i32 63, label %36
    i32 84, label %36
    i32 265, label %36
    i32 109, label %38
    i32 85, label %41
    i32 83, label %44
  ]

36:                                               ; preds = %32, %32, %32
  %37 = or i64 %34, %.059
  br label %50

38:                                               ; preds = %32
  %39 = xor i64 %34, -1
  %40 = and i64 %.059, %39
  br label %50

41:                                               ; preds = %32
  %42 = xor i64 %34, -1
  %43 = and i64 %.059, %42
  br label %50

44:                                               ; preds = %32
  %45 = and i64 %34, %.059
  %.not42 = icmp eq i64 %45, 0
  br i1 %.not42, label %47, label %46

46:                                               ; preds = %44
  store i32 85, ptr %13, align 8, !tbaa !26
  br label %47

47:                                               ; preds = %46, %44
  %48 = xor i64 %34, -1
  %49 = and i64 %.059, %48
  br label %50

50:                                               ; preds = %32, %36, %38, %41, %47, %maybe_push.exit
  %.1 = phi i64 [ %.059, %maybe_push.exit ], [ %.059, %32 ], [ %49, %47 ], [ %43, %41 ], [ %40, %38 ], [ %37, %36 ]
  %indvars.iv.next = add nuw nsw i64 %indvars.iv, 1
  %51 = load i32, ptr %5, align 8, !tbaa !25
  %52 = sext i32 %51 to i64
  %53 = icmp slt i64 %indvars.iv.next, %52
  br i1 %53, label %11, label %._crit_edge, !llvm.loop !180

54:                                               ; preds = %._crit_edge
  %55 = icmp sgt i32 %.lcssa, 0
  br i1 %55, label %basicblock_last_instr.exit.i, label %basicblock_nofallthrough.exit.thread

basicblock_last_instr.exit.i:                     ; preds = %54
  %56 = getelementptr inbounds nuw i8, ptr %0, i64 24
  %57 = load ptr, ptr %56, align 8, !tbaa !20
  %58 = zext nneg i32 %.lcssa to i64
  %59 = getelementptr %struct._PyCfgInstruction, ptr %57, i64 %58
  %60 = getelementptr i8, ptr %59, i64 -40
  %.not.i43 = icmp eq ptr %60, null
  br i1 %.not.i43, label %basicblock_nofallthrough.exit.thread, label %61

61:                                               ; preds = %basicblock_last_instr.exit.i
  %62 = load i32, ptr %60, align 8, !tbaa !26
  switch i32 %62, label %basicblock_nofallthrough.exit.thread [
    i32 36, label %basicblock_last_instr.exit
    i32 101, label %basicblock_last_instr.exit
    i32 102, label %basicblock_last_instr.exit
    i32 256, label %basicblock_last_instr.exit
    i32 259, label %basicblock_last_instr.exit
    i32 76, label %basicblock_last_instr.exit
    i32 74, label %basicblock_last_instr.exit
    i32 75, label %basicblock_last_instr.exit
  ]

basicblock_nofallthrough.exit.thread:             ; preds = %61, %54, %basicblock_last_instr.exit.i
  %63 = getelementptr inbounds nuw i8, ptr %10, i64 48
  %64 = load i64, ptr %63, align 8, !tbaa !94
  %65 = or i64 %64, %.0.lcssa
  %.not.i44 = icmp eq i64 %64, %65
  br i1 %.not.i44, label %maybe_push.exit46, label %66

66:                                               ; preds = %basicblock_nofallthrough.exit.thread
  store i64 %65, ptr %63, align 8, !tbaa !94
  %67 = getelementptr inbounds nuw i8, ptr %10, i64 64
  %68 = load i8, ptr %67, align 8
  %69 = and i8 %68, 2
  %.not9.i45 = icmp eq i8 %69, 0
  br i1 %.not9.i45, label %70, label %maybe_push.exit46

70:                                               ; preds = %66
  %71 = load ptr, ptr %1, align 8, !tbaa !92
  %72 = getelementptr i8, ptr %71, i64 8
  store ptr %72, ptr %1, align 8, !tbaa !92
  store ptr %10, ptr %71, align 8, !tbaa !23
  %73 = load i8, ptr %67, align 8
  %74 = or i8 %73, 2
  store i8 %74, ptr %67, align 8
  %.pre = load i32, ptr %5, align 8, !tbaa !25
  br label %maybe_push.exit46

maybe_push.exit46:                                ; preds = %70, %66, %basicblock_nofallthrough.exit.thread, %._crit_edge
  %75 = phi i32 [ %.pre, %70 ], [ %.lcssa, %66 ], [ %.lcssa, %basicblock_nofallthrough.exit.thread ], [ %.lcssa, %._crit_edge ]
  %76 = icmp sgt i32 %75, 0
  br i1 %76, label %basicblock_last_instr.exit, label %maybe_push.exit49

basicblock_last_instr.exit:                       ; preds = %61, %61, %61, %61, %61, %61, %61, %61, %maybe_push.exit46
  %77 = phi i32 [ %75, %maybe_push.exit46 ], [ %.lcssa, %61 ], [ %.lcssa, %61 ], [ %.lcssa, %61 ], [ %.lcssa, %61 ], [ %.lcssa, %61 ], [ %.lcssa, %61 ], [ %.lcssa, %61 ], [ %.lcssa, %61 ]
  %78 = getelementptr inbounds nuw i8, ptr %0, i64 24
  %79 = load ptr, ptr %78, align 8, !tbaa !20
  %80 = zext nneg i32 %77 to i64
  %81 = getelementptr %struct._PyCfgInstruction, ptr %79, i64 %80
  %82 = getelementptr i8, ptr %81, i64 -40
  %.not39 = icmp eq ptr %82, null
  br i1 %.not39, label %maybe_push.exit49, label %83

83:                                               ; preds = %basicblock_last_instr.exit
  %.val = load i32, ptr %82, align 8, !tbaa !26
  %84 = sext i32 %.val to i64
  %85 = getelementptr [266 x %struct.opcode_metadata], ptr @_PyOpcode_opcode_metadata, i64 0, i64 %84, i32 2
  %86 = load i16, ptr %85, align 2, !tbaa !29
  %87 = and i16 %86, 8
  %.not40 = icmp eq i16 %87, 0
  br i1 %.not40, label %maybe_push.exit49, label %88

88:                                               ; preds = %83
  %89 = getelementptr i8, ptr %81, i64 -16
  %90 = load ptr, ptr %89, align 8, !tbaa !36
  %91 = getelementptr inbounds nuw i8, ptr %90, i64 48
  %92 = load i64, ptr %91, align 8, !tbaa !94
  %93 = or i64 %92, %.0.lcssa
  %.not.i47 = icmp eq i64 %92, %93
  br i1 %.not.i47, label %maybe_push.exit49, label %94

94:                                               ; preds = %88
  store i64 %93, ptr %91, align 8, !tbaa !94
  %95 = getelementptr inbounds nuw i8, ptr %90, i64 64
  %96 = load i8, ptr %95, align 8
  %97 = and i8 %96, 2
  %.not9.i48 = icmp eq i8 %97, 0
  br i1 %.not9.i48, label %98, label %maybe_push.exit49

98:                                               ; preds = %94
  %99 = load ptr, ptr %1, align 8, !tbaa !92
  %100 = getelementptr i8, ptr %99, i64 8
  store ptr %100, ptr %1, align 8, !tbaa !92
  store ptr %90, ptr %99, align 8, !tbaa !23
  %101 = load i8, ptr %95, align 8
  %102 = or i8 %101, 2
  store i8 %102, ptr %95, align 8
  br label %maybe_push.exit49

maybe_push.exit49:                                ; preds = %maybe_push.exit46, %98, %94, %88, %83, %basicblock_last_instr.exit
  ret void
}